target datalayout = "e-m:e-p270:32:32-p271:32:32-p272:64:64-i64:64-i128:128-f80:128-n8:16:32:64-S128"
target triple = "x86_64-pc-linux-gnu"

%struct._alias = type { ptr, ptr, i32, i32, i32, i32 }

@PyExc_ValueError = external global ptr, align 8
@.str.64 = private unnamed_addr constant [35 x i8] c"field 'name' is required for alias\00", align 1

; Function Attrs: nounwind uwtable
define hidden ptr @_PyAST_alias(ptr noundef %0, ptr noundef %1, i32 noundef %2, i32 noundef %3, i32 noundef %4, i32 noundef %5, ptr noundef %6) #0 {
  %8 = alloca ptr, align 8
  %9 = alloca ptr, align 8
  %10 = alloca ptr, align 8
  %11 = alloca i32, align 4
  %12 = alloca i32, align 4
  %13 = alloca i32, align 4
  %14 = alloca i32, align 4
  %15 = alloca ptr, align 8
  %16 = alloca ptr, align 8
  %17 = alloca i32, align 4
  store ptr %0, ptr %9, align 8, !tbaa !13
  store ptr %1, ptr %10, align 8, !tbaa !13
  store i32 %2, ptr %11, align 4, !tbaa !38
  store i32 %3, ptr %12, align 4, !tbaa !38
  store i32 %4, ptr %13, align 4, !tbaa !38
  store i32 %5, ptr %14, align 4, !tbaa !38
  store ptr %6, ptr %15, align 8, !tbaa !24
  call void @llvm.lifetime.start.p0(i64 8, ptr %16) #8
  %18 = load ptr, ptr %9, align 8, !tbaa !13
  %19 = icmp ne ptr %18, null
  br i1 %19, label %22, label %20

20:                                               ; preds = %7
  %21 = load ptr, ptr @PyExc_ValueError, align 8, !tbaa !13
  call void @PyErr_SetString(ptr noundef %21, ptr noundef @.str.64)
  store ptr null, ptr %8, align 8
  store i32 1, ptr %17, align 4
  br label %48

22:                                               ; preds = %7
  %23 = load ptr, ptr %15, align 8, !tbaa !24
  %24 = call ptr @_PyArena_Malloc(ptr noundef %23, i64 noundef 32)
  store ptr %24, ptr %16, align 8, !tbaa !95
  %25 = load ptr, ptr %16, align 8, !tbaa !95
  %26 = icmp ne ptr %25, null
  br i1 %26, label %28, label %27

27:                                               ; preds = %22
  store ptr null, ptr %8, align 8
  store i32 1, ptr %17, align 4
  br label %48

28:                                               ; preds = %22
  %29 = load ptr, ptr %9, align 8, !tbaa !13
  %30 = load ptr, ptr %16, align 8, !tbaa !95
  %31 = getelementptr inbounds nuw %struct._alias, ptr %30, i32 0, i32 0
  store ptr %29, ptr %31, align 8, !tbaa !97
  %32 = load ptr, ptr %10, align 8, !tbaa !13
  %33 = load ptr, ptr %16, align 8, !tbaa !95
  %34 = getelementptr inbounds nuw %struct._alias, ptr %33, i32 0, i32 1
  store ptr %32, ptr %34, align 8, !tbaa !99
  %35 = load i32, ptr %11, align 4, !tbaa !38
  %36 = load ptr, ptr %16, align 8, !tbaa !95
  %37 = getelementptr inbounds nuw %struct._alias, ptr %36, i32 0, i32 2
  store i32 %35, ptr %37, align 8, !tbaa !100
  %38 = load i32, ptr %12, align 4, !tbaa !38
  %39 = load ptr, ptr %16, align 8, !tbaa !95
  %40 = getelementptr inbounds nuw %struct._alias, ptr %39, i32 0, i32 3
  store i32 %38, ptr %40, align 4, !tbaa !101
  %41 = load i32, ptr %13, align 4, !tbaa !38
  %42 = load ptr, ptr %16, align 8, !tbaa !95
  %43 = getelementptr inbounds nuw %struct._alias, ptr %42, i32 0, i32 4
  store i32 %41, ptr %43, align 8, !tbaa !102
  %44 = load i32, ptr %14, align 4, !tbaa !38
  %45 = load ptr, ptr %16, align 8, !tbaa !95
  %46 = getelementptr inbounds nuw %struct._alias, ptr %45, i32 0, i32 5
  store i32 %44, ptr %46, align 4, !tbaa !103
  %47 = load ptr, ptr %16, align 8, !tbaa !95
  store ptr %47, ptr %8, align 8
  store i32 1, ptr %17, align 4
  br label %48

48:                                               ; preds = %28, %27, %20
  call void @llvm.lifetime.end.p0(i64 8, ptr %16) #8
  %49 = load ptr, ptr %8, align 8
  ret ptr %49
}