; Function Attrs: nounwind uwtable
define hidden ptr @_PyAST_alias(ptr noundef %0, ptr noundef %1, i32 noundef %2, i32 noundef %3, i32 noundef %4, i32 noundef %5, ptr noundef %6) local_unnamed_addr #0 {
  %.not = icmp eq ptr %0, null
  br i1 %.not, label %8, label %10

8:                                                ; preds = %7
  %9 = load ptr, ptr @PyExc_ValueError, align 8, !tbaa !4
  tail call void @PyErr_SetString(ptr noundef %9, ptr noundef nonnull @.str.64) #8
  br label %18

10:                                               ; preds = %7
  %11 = tail call ptr @_PyArena_Malloc(ptr noundef %6, i64 noundef 32) #8
  %.not18 = icmp eq ptr %11, null
  br i1 %.not18, label %18, label %12

12:                                               ; preds = %10
  store ptr %0, ptr %11, align 8, !tbaa !68
  %13 = getelementptr inbounds nuw i8, ptr %11, i64 8
  store ptr %1, ptr %13, align 8, !tbaa !70
  %14 = getelementptr inbounds nuw i8, ptr %11, i64 16
  store i32 %2, ptr %14, align 8, !tbaa !71
  %15 = getelementptr inbounds nuw i8, ptr %11, i64 20
  store i32 %3, ptr %15, align 4, !tbaa !72
  %16 = getelementptr inbounds nuw i8, ptr %11, i64 24
  store i32 %4, ptr %16, align 8, !tbaa !73
  %17 = getelementptr inbounds nuw i8, ptr %11, i64 28
  store i32 %5, ptr %17, align 4, !tbaa !74
  br label %18

18:                                               ; preds = %10, %12, %8
  %.0 = phi ptr [ %11, %12 ], [ null, %8 ], [ null, %10 ]
  ret ptr %.0
}